; Function Attrs: mustprogress nofree norecurse nosync nounwind willreturn memory(read, inaccessiblemem: none) uwtable
define noundef range(i32 0, 2) i32 @_ZNK10open_spiel10backgammon15BackgammonState10IsGammonedEi(ptr nocapture noundef nonnull readonly align 8 dereferenceable(216) %0, i32 noundef %1) local_unnamed_addr #9 align 2 {
  %3 = getelementptr inbounds nuw i8, ptr %0, i64 64
  %4 = load i8, ptr %3, align 8
  %5 = trunc i8 %4 to i1
  br i1 %5, label %14, label %6

6:                                                ; preds = %2
  %7 = getelementptr inbounds nuw i8, ptr %0, i64 144
  %8 = sext i32 %1 to i64
  %9 = load ptr, ptr %7, align 8
  %10 = getelementptr inbounds i32, ptr %9, i64 %8
  %11 = load i32, ptr %10, align 4
  %12 = icmp eq i32 %11, 0
  %13 = zext i1 %12 to i32
  br label %14

14:                                               ; preds = %2, %6
  %.0 = phi i32 [ %13, %6 ], [ 0, %2 ]
  ret i32 %.0
}